   1 0000               #
   2 0000               # @author: Brendan Kapp (bek7883)
   3 0000               #
   4 0000               # This is forestfire main program and is responsible for the main loop
   5 0000               # of the project, it involves calling all the nessicary functions that
   6 0000               # manage the main state of the simulation.
   7 0000               
   8 0000               #
   9 0000               # CONSTANTS
  10 0000               #
  11 0000               
  12 0000               PRINT_STRING = 4
  13 0000               READ_INT = 5
  14 0000               PRINT_INT = 1
  15 0000               
  16 0000               #
  17 0000               # DATA
  18 0000               #
  19 0000               
  20 0000               	.data
  21 0000               input_failed_text:
  22 0000 496E7075		.asciiz	"Input failed\n"
          74206661
          696C6564
          0A00    
  23 000e               input_success_text:
  24 000e 496E7075		.asciiz "Input passed\n"
          74207061
          73736564
          0A00    
  25 001c               invalid_grid_size:
  26 001c 4552524F		.asciiz "ERROR: invalid grid size\n"
          523A2069
          6E76616C
          69642067
          72696420
          73697A65
  27 0036               invalid_num_gen:
  28 0036 4552524F		.asciiz "ERROR: invalid number of generations\n"
          523A2069
          6E76616C
          6964206E
          756D6265
          72206F66
  29 005c               invalid_wind_dir:
  30 005c 4552524F		.asciiz "ERROR: invalid wind direction\n"
          523A2069
          6E76616C
          69642077
          696E6420
          64697265
  31 007b               invalid_char_grid:
  32 007b 4552524F		.asciiz "ERROR: invalid character in grid\n"
          523A2069
          6E76616C
          69642063
          68617261
          63746572
  33 009d               newline:
  34 009d 0A00    		.asciiz "\n"
  35 009f               
  36 009f               #
  37 009f               # CODE
  38 009f               #
  39 0000               	.text
  40 0000               	.align	2
  41 0000               
  42 0000               	.globl	main
  43 0000               	.globl	input
  44 0000               	.globl	output
  45 0000               	.globl	grid_create
  46 0000               	.globl	grid_cycle
  47 0000               	.globl	print_banner
  48 0000               	.globl	print_grid
  49 0000               	.globl	rule_1
  50 0000               	.globl	rule_2
  51 0000               	.globl	rule_3
  52 0000               
  53 0000               main:
  54 0000 23BDFFE0		addi	$sp, $sp, -32
  55 0004 AFBF001C		sw	$ra, 28($sp)
  56 0008 AFB70018		sw	$s7, 24($sp)
  57 000c AFB60014		sw	$s6, 20($sp)
  58 0010 AFB50010		sw	$s5, 16($sp)
  59 0014 AFB4000C		sw	$s4, 12($sp)
  60 0018 AFB30008		sw	$s3, 8($sp)
  61 001c AFB20004		sw	$s2, 4($sp)
  62 0020 AFB10000		sw	$s1, 0($sp)
  63 0024               
  64 0024 0C000000		jal	input
  65 0028 2408FFFF		li	$t0, -1
  66 002c 14480017		bne	$v0, $t0, input_success		# check if the return given
  67 0030               						#  is -1 (fail) or success 		
  68 0030               input_failed:
  69 0030 34020004		li	$v0, PRINT_STRING
  70 0034 34090001		li	$t1, 1
  71 0038 10690006		beq	$v1, $t1, error_size
  72 003c 34090002		li	$t1, 2
  73 0040 10690007		beq	$v1, $t1, error_gen
  74 0044 34090003		li	$t1, 3
  75 0048 10690008		beq	$v1, $t1, error_wind
  76 004c 34090004		li	$t1, 4
  77 0050 10690009		beq	$v1, $t1, error_char
  78 0054               error_size:
  79 0054 3C040000		la	$a0, invalid_grid_size
     0058 34840000
  80 005c 08000021		j	error_end
  81 0060               error_gen:
  82 0060 3C040000		la	$a0, invalid_num_gen
     0064 34840000
  83 0068 08000021		j	error_end
  84 006c               error_wind:
  85 006c 3C040000		la	$a0, invalid_wind_dir
     0070 34840000
  86 0074 08000021		j	error_end	
  87 0078               error_char:
  88 0078 3C040000		la	$a0, invalid_char_grid
     007c 34840000
  89 0080 08000021		j	error_end
  90 0084               error_end:
  91 0084 0000000C		syscall
  92 0088               
  93 0088               
  94 0088               	#li	$v0, PRINT_STRING
  95 0088               	#la	$a0, input_failed_text
  96 0088               	#syscall
  97 0088               
  98 0088               	#li	$v0, PRINT_INT
  99 0088               	#move	$a0, $v1
 100 0088               	#syscall
 101 0088               	
 102 0088               	#li	$v0, PRINT_STRING
 103 0088               	#la	$a0, newline
 104 0088               	#syscall
 105 0088 08000047		j	main_done
 106 008c               input_success:
 107 008c 00404821		move	$t1, $v0			# print success message
 108 0090               	#li	$v0, PRINT_STRING
 109 0090               	#la	$a0, input_success_text
 110 0090               	#syscall
 111 0090               
 112 0090               	#li	$v0, PRINT_INT			# print address
 113 0090               	#move	$a0, $t1
 114 0090               	#syscall
 115 0090               	
 116 0090               	#li	$v0, PRINT_STRING
 117 0090               	#la	$a0, newline
 118 0090               	#syscall
 119 0090               main_loop_start:
 120 0090 0C000000		jal	grid_create			# create the grid
 121 0094 0040B821		move	$s7, $v0			# grid address
 122 0098 34100000		li	$s0, 0 				# generations counter
 123 009c 8D310000		lw	$s1, 0($t1)			# size
 124 00a0 8D320004		lw	$s2, 4($t1)			# generations
 125 00a4 8D330008		lw	$s3, 8($t1)			# wind
 126 00a8 0C000000		jal	print_banner
 127 00ac               main_loop:
 128 00ac               	# print
 129 00ac 02E02021		move	$a0, $s7
 130 00b0 02002821		move	$a1, $s0
 131 00b4 02203021		move	$a2, $s1
 132 00b8 0C000000		jal	print_grid
 133 00bc               	# increment
 134 00bc 22100001		addi	$s0, $s0, 1
 135 00c0               	# loop over all grid spaces
 136 00c0 34140000		li	$s4, 0				# x counter
 137 00c4 2415FFFF		li	$s5, -1				# y counter
 138 00c8               grid_loop_outer:
 139 00c8 22B50001		addi	$s5, $s5, 1
 140 00cc 34140000		li	$s4, 0				# reset x counter
 141 00d0 12B1000F		beq	$s5, $s1, grid_loop_end
 142 00d4               grid_loop_inner:
 143 00d4               	
 144 00d4               	# apple rule 1
 145 00d4 02802021		move	$a0, $s4
 146 00d8 02A02821		move	$a1, $s5
 147 00dc 0C000000		jal	rule_1
 148 00e0               	# apply rule 2
 149 00e0 02802021		move	$a0, $s4
 150 00e4 02A02821		move	$a1, $s5
 151 00e8 02203021		move	$a2, $s1
 152 00ec 0C000000		jal	rule_2
 153 00f0               	# apply rule 3
 154 00f0 02802021		move	$a0, $s4
 155 00f4 02A02821		move	$a1, $s5
 156 00f8 02203021		move	$a2, $s1
 157 00fc 02603821		move	$a3, $s3
 158 0100 0C000000		jal	rule_3
 159 0104               
 160 0104 22940001		addi	$s4, $s4, 1
 161 0108 1291FFEF		beq	$s4, $s1, grid_loop_outer
 162 010c 08000035		j	grid_loop_inner
 163 0110               grid_loop_end:
 164 0110               	# copy generation
 165 0110 0C000000		jal	grid_cycle	
 166 0114               	# loop
 167 0114 12120001		beq	$s0, $s2, main_done
 168 0118 0800002B		j	main_loop
 169 011c               	
 170 011c               main_done:
 171 011c 8FB10000		lw	$s1, 0($sp)
 172 0120 8FB20004		lw	$s2, 4($sp)
 173 0124 8FB30008		lw	$s3, 8($sp)
 174 0128 8FB4000C		lw	$s4, 12($sp)
 175 012c 8FB50010		lw	$s5, 16($sp)
 176 0130 8FB60014		lw	$s6, 20($sp)
 177 0134 8FB70018		lw	$s7, 24($sp)
 178 0138 8FBF001C		lw	$ra, 28($sp)
 179 013c 23BD0020		addi	$sp, $sp, 32
 180 0140 03E00008		jr	$ra


PRINT_INT           = 00000001   
PRINT_STRING        = 00000004   
READ_INT            = 00000005   
error_char            00000078 R  text 
error_end             00000084 R  text 
error_gen             00000060 R  text 
error_size            00000054 R  text 
error_wind            0000006C R  text 
grid_create           ******** XG
grid_cycle            ******** XG
grid_loop_end         00000110 R  text 
grid_loop_inner       000000D4 R  text 
grid_loop_outer       000000C8 R  text 
input                 ******** XG
input_failed          00000030 R  text 
input_failed_text     00000000 R  data 
input_success         0000008C R  text 
input_success_text    0000000E R  data 
invalid_char_grid     0000007B R  data 
invalid_grid_size     0000001C R  data 
invalid_num_gen       00000036 R  data 
invalid_wind_dir      0000005C R  data 
main                  00000000 RG text 
main_done             0000011C R  text 
main_loop             000000AC R  text 
main_loop_start       00000090 R  text 
newline               0000009D R  data 
output                ******** XG
print_banner          ******** XG
print_grid            ******** XG
rule_1                ******** XG
rule_2                ******** XG
rule_3                ******** XG
