   1 0000               #
   2 0000               # @author Brendan Kapp (bek7883)
   3 0000               #
   4 0000               # All input is handled in this file
   5 0000               #
   6 0000               PRINT_STRING = 4
   7 0000               READ_INT = 5
   8 0000               PRINT_INT = 1
   9 0000               READ_CHAR = 12
  10 0000               READ_STRING = 8
  11 0000               
  12 0000               	.data
  13 0000               	.align	2
  14 0000               input_data:
  15 0000 00000000		.word	0, 0, 0				# size, generations, wind
     0004 00000000
     0008 00000000
  16 000c               input_grid_data:
  17 000c 00000000		.space	32
          00000000
          00000000
          00000000
          00000000
          00000000
  18 002c               input_direction:
  19 002c 00000000		.space	32
          00000000
          00000000
          00000000
          00000000
          00000000
  20 004c               
  21 0000               	.text
  22 0000               	.align	2
  23 0000               
  24 0000               	.globl	input
  25 0000               	.globl	main
  26 0000               	.globl	grid_set
  27 0000               #
  28 0000               # input
  29 0000               #	parameters: none	
  30 0000               #	returns: v0 (-1 for fail, address of data for success)
  31 0000               #
  32 0000               input:
  33 0000 23BDFFDC		addi	$sp, $sp, -36
  34 0004 AFBF0020		sw	$ra, 32($sp)
  35 0008 AFB7001C		sw	$s7, 28($sp)
  36 000c AFB60018		sw	$s6, 24($sp)
  37 0010 AFB50014		sw	$s5, 20($sp)
  38 0014 AFB40010		sw	$s4, 16($sp)
  39 0018 AFB3000C		sw	$s3, 12($sp)
  40 001c AFB20008		sw	$s2, 8($sp)
  41 0020 AFB10004		sw	$s1, 4($sp)
  42 0024 AFB00000		sw	$s0, 0($sp)
  43 0028               
  44 0028 34080002		li	$t0, 2			
  45 002c 3C090000		la	$t1, input_data
     0030 35290000
  46 0034               						# empty input
  47 0034 240BFFFF		li	$t3, -1
  48 0038 AD2B0000		sw	$t3, 0($t1)
  49 003c AD2B0004		sw	$t3, 4($t1)
  50 0040 AD2B0008		sw	$t3, 8($t1)
  51 0044               
  52 0044               read_input_loop:
  53 0044 34020005		li	$v0, READ_INT			# read input
  54 0048 0000000C		syscall
  55 004c AD220000		sw	$v0, 0($t1)
  56 0050 21290004		addi	$t1, $t1, 4			# update pointer
  57 0054 2108FFFF		addi	$t0, $t0, -1
  58 0058 11000001		beq	$t0, $zero, read_input_text	# branch after 3
  59 005c 08000011		j	read_input_loop
  60 0060               read_input_text:
  61 0060 3C080000		la	$t0, input_direction
     0064 35080000
  62 0068 01002021		move	$a0, $t0
  63 006c 34050003		li	$a1, 3
  64 0070 34020008		li	$v0, READ_STRING
  65 0074 0000000C		syscall
  66 0078 810B0000		lb	$t3, 0($t0)
  67 007c AD2B0008		sw	$t3, 8($t1)	
  68 0080               read_input_done:
  69 0080               						# validate data
  70 0080 3C090000		la	$t1, input_data			# data address
     0084 35290000
  71 0088               						# check size (4 <= 30)
  72 0088 34030001		li	$v1, 1				# error code 1
  73 008c 340A0004		li	$t2, 4
  74 0090 340B001E		li	$t3, 30
  75 0094 8D2C0000		lw	$t4, 0($t1)
  76 0098 018A682A		slt	$t5, $t4, $t2
  77 009c 15A00017		bne	$t5, $zero, read_input_fail
  78 00a0 016C682A		slt	$t5, $t3, $t4
  79 00a4 15A00015		bne	$t5, $zero, read_input_fail
  80 00a8               						# check generations (0 <= 20)
  81 00a8 34030002		li	$v1, 2				# error code 2
  82 00ac 340A0000		li	$t2, 0
  83 00b0 340B0014		li	$t3, 20
  84 00b4 8D2C0004		lw	$t4, 4($t1)
  85 00b8 018A682A		slt	$t5, $t4, $t2
  86 00bc 15A0000F		bne	$t5, $zero, read_input_fail
  87 00c0 016C682A		slt	$t5, $t3, $t4
  88 00c4 15A0000D		bne	$t5, $zero, read_input_fail	
  89 00c8               						# check wind (N, S, E, W)
  90 00c8               						# (78, 83, 69, 87)
  91 00c8 34030003		li	$v1, 3				# error code 3
  92 00cc 340A004E		li	$t2, 78
  93 00d0 8D2C0010		lw	$t4, 16($t1)
  94 00d4 AD2C0008		sw	$t4, 8($t1)			# reposition the wind
  95 00d8 118A0007		beq	$t4, $t2, read_input_pass
  96 00dc 340A0053		li	$t2, 83
  97 00e0 118A0005		beq	$t4, $t2, read_input_pass
  98 00e4 340A0045		li	$t2, 69
  99 00e8 118A0003		beq	$t4, $t2, read_input_pass
 100 00ec 340A0057		li	$t2, 87
 101 00f0 118A0001		beq	$t4, $t2, read_input_pass
 102 00f4 0800003F		j	read_input_fail
 103 00f8               read_input_pass:
 104 00f8               	#la	$v0, input_data			# return the data address
 105 00f8 08000041		j	read_grid_start
 106 00fc               read_input_fail:
 107 00fc 2402FFFF		la	$v0, -1				# return an error code
 108 0100 08000061		j	read_input_finish
 109 0104               read_grid_start:
 110 0104 3C090000		la	$t1, input_data			# data address
     0108 35290000
 111 010c 8D310000		lw	$s1, 0($t1)			# size of grid
 112 0110 34120000		li	$s2, 0				# counter
 113 0114               read_grid_loop:
 114 0114               	# read each line of input
 115 0114 3C040000		la	$a0, input_grid_data
     0118 34840000
 116 011c 34050020		li	$a1, 32	
 117 0120 34020008		li	$v0, READ_STRING
 118 0124 0000000C		syscall
 119 0128               	#la	$a0, input_grid_data
 120 0128               	#li	$v0, PRINT_STRING
 121 0128               	#syscall
 122 0128               	# verify each line (either continue or error)
 123 0128 3C140000		la	$s4, input_grid_data		# verify address
     012c 36940000
 124 0130 34130000		li	$s3, 0				# verify counter
 125 0134 2415FFFF		li	$s5, -1				# error code
 126 0138               verify_loop:
 127 0138 82840000		lb	$a0, 0($s4)
 128 013c 0C00006C		jal	grid_text_to_int
 129 0140 1055000B		beq	$v0, $s5, verify_fail
 130 0144               	# save each piece
 131 0144 02602021		move	$a0, $s3			# x location
 132 0148 02402821		move	$a1, $s2			# y location
 133 014c 00403021		move	$a2, $v0			# value
 134 0150 0C000000		jal	grid_set
 135 0154               
 136 0154 22730001		addi	$s3, $s3, 1
 137 0158 22940001		addi	$s4, $s4, 1
 138 015c 12710001		beq	$s3, $s1, verify_end
 139 0160 0800004E		j	verify_loop
 140 0164               verify_end:
 141 0164               	# go to next line		
 142 0164 22520001		addi	$s2, $s2, 1
 143 0168 12320004		beq	$s1, $s2, read_grid_finish
 144 016c 08000045		j	read_grid_loop
 145 0170               verify_fail:
 146 0170 2402FFFF		li	$v0, -1
 147 0174 34030004		li	$v1, 4
 148 0178 08000061		j	read_input_finish
 149 017c               read_grid_finish:
 150 017c 3C020000		la	$v0, input_data	
     0180 34420000
 151 0184               read_input_finish:
 152 0184 8FB00000		lw	$s0, 0($sp)
 153 0188 8FB10004		lw	$s1, 4($sp)
 154 018c 8FB20008		lw	$s2, 8($sp)
 155 0190 8FB3000C		lw	$s3, 12($sp)
 156 0194 8FB40010		lw	$s4, 16($sp)
 157 0198 8FB50014		lw	$s5, 20($sp)
 158 019c 8FB60018		lw	$s6, 24($sp)
 159 01a0 8FB7001C		lw	$s7, 28($sp)
 160 01a4 8FBF0020		lw	$ra, 32($sp)
 161 01a8 23BD0024		addi	$sp, $sp, 36
 162 01ac 03E00008		jr	$ra
 163 01b0               
 164 01b0               #
 165 01b0               # takes in the grid input and returns the int to store
 166 01b0               # parameters: a0 (grid input)
 167 01b0               # returns: v0 (int to store, -1 for bad value)
 168 01b0               #
 169 01b0               grid_text_to_int:
 170 01b0 23BDFFFC		addi	$sp, $sp, -4
 171 01b4 AFBF0000		sw	$ra, 0($sp)
 172 01b8               						# ascii values to check for
 173 01b8               						# B (66), t (116), . (46)
 174 01b8 34080042		li	$t0, 66				# check for B
 175 01bc 34020003		li	$v0, 3				# set to burning
 176 01c0 10880007		beq	$a0, $t0, grid_text_end
 177 01c4 34080074		li	$t0, 116			# check for t
 178 01c8 34020002		li	$v0, 2				# set to tree
 179 01cc 10880004		beq	$a0, $t0, grid_text_end
 180 01d0 3408002E		li	$t0, 46				# check for .
 181 01d4 34020001		li	$v0, 1				# set to grass
 182 01d8 10880001		beq	$a0, $t0, grid_text_end
 183 01dc               	
 184 01dc 2402FFFF		li	$v0, -1				# error
 185 01e0               grid_text_end:
 186 01e0 8FBF0000		lw	$ra, 0($sp)
 187 01e4 23BD0004		addi	$sp, $sp, 4
 188 01e8 03E00008		jr	$ra


PRINT_INT          = 00000001   
PRINT_STRING       = 00000004   
READ_CHAR          = 0000000C   
READ_INT           = 00000005   
READ_STRING        = 00000008   
grid_set             ******** XG
grid_text_end        000001E0 R  text 
grid_text_to_int     000001B0 R  text 
input                00000000 RG text 
input_data           00000000 R  data 
input_direction      0000002C R  data 
input_grid_data      0000000C R  data 
main                 ******** XG
read_grid_finish     0000017C R  text 
read_grid_loop       00000114 R  text 
read_grid_start      00000104 R  text 
read_input_done      00000080 R  text 
read_input_fail      000000FC R  text 
read_input_finish    00000184 R  text 
read_input_loop      00000044 R  text 
read_input_pass      000000F8 R  text 
read_input_text      00000060 R  text 
verify_end           00000164 R  text 
verify_fail          00000170 R  text 
verify_loop          00000138 R  text 
